target datalayout = "e-m:e-p270:32:32-p271:32:32-p272:64:64-i64:64-i128:128-f80:128-n8:16:32:64-S128"
target triple = "x86_64-pc-linux-gnu"

%class.CrowdToolState = type <{ %struct.SampleToolState, ptr, ptr, ptr, [3 x float], i32, %struct.dtCrowdAgentDebugInfo, ptr, [128 x %"struct.CrowdToolState::AgentTrail"], %class.ValueHistory, %class.ValueHistory, %struct.CrowdToolParams, i8, [7 x i8] }>
%struct.SampleToolState = type { ptr }
%struct.dtCrowdAgentDebugInfo = type { i32, [3 x float], [3 x float], ptr }
%"struct.CrowdToolState::AgentTrail" = type { [192 x float], i32 }
%class.ValueHistory = type { [256 x float], i32 }
%struct.CrowdToolParams = type { i8, i8, i8, i8, i8, i8, i8, i8, i8, i8, i8, i8, i8, i8, i8, i8, i8, i8, float, i8, float }

; Function Attrs: mustprogress uwtable
define dso_local void @_ZN14CrowdToolState12handleUpdateEf(ptr noundef nonnull align 8 dereferenceable(101001) %0, float noundef %1) unnamed_addr #0 align 2 {
  %3 = alloca ptr, align 8
  %4 = alloca float, align 4
  store ptr %0, ptr %3, align 8
  store float %1, ptr %4, align 4
  %5 = load ptr, ptr %3, align 8
  %6 = getelementptr inbounds %class.CrowdToolState, ptr %5, i32 0, i32 12
  %7 = load i8, ptr %6, align 8
  %8 = trunc i8 %7 to i1
  br i1 %8, label %9, label %11

9:                                                ; preds = %2
  %10 = load float, ptr %4, align 4
  call void @_ZN14CrowdToolState10updateTickEf(ptr noundef nonnull align 8 dereferenceable(101001) %5, float noundef %10)
  br label %11

11:                                               ; preds = %9, %2
  ret void
}