; Function Attrs: mustprogress uwtable
define dso_local void @_ZN14CrowdToolState12handleUpdateEf(ptr noundef nonnull align 8 dereferenceable(101001) %0, float noundef %1) unnamed_addr #0 align 2 {
  %3 = getelementptr inbounds i8, ptr %0, i64 101000
  %4 = load i8, ptr %3, align 8
  %5 = and i8 %4, 1
  %.not = icmp eq i8 %5, 0
  br i1 %.not, label %7, label %6

6:                                                ; preds = %2
  tail call void @_ZN14CrowdToolState10updateTickEf(ptr noundef nonnull align 8 dereferenceable(101001) %0, float noundef %1)
  br label %7

7:                                                ; preds = %6, %2
  ret void
}